target datalayout = "e-m:e-p270:32:32-p271:32:32-p272:64:64-i64:64-i128:128-f80:128-n8:16:32:64-S128"
target triple = "x86_64-pc-linux-gnu"

@do_bitexact = internal global i32 0, align 4
@.str.277 = private unnamed_addr constant [8 x i8] c"unknown\00", align 1
@.str.466 = private unnamed_addr constant [8 x i8] c"pix_fmt\00", align 1

; Function Attrs: nounwind uwtable
define internal void @print_pixel_format(ptr noundef %0, i32 noundef %1) #0 {
  %3 = alloca ptr, align 8
  %4 = alloca i32, align 4
  %5 = alloca ptr, align 8
  %6 = alloca i32, align 4
  %7 = alloca ptr, align 8
  %8 = alloca [128 x i8], align 16
  %9 = alloca i64, align 8
  store ptr %0, ptr %3, align 8, !tbaa !28
  store i32 %1, ptr %4, align 4, !tbaa !11
  call void @llvm.lifetime.start.p0(i64 8, ptr %5) #14
  %10 = load i32, ptr %4, align 4, !tbaa !11
  %11 = call ptr @av_get_pix_fmt_name(i32 noundef %10)
  store ptr %11, ptr %5, align 8, !tbaa !4
  call void @llvm.lifetime.start.p0(i64 4, ptr %6) #14
  %12 = load ptr, ptr %5, align 8, !tbaa !4
  %13 = icmp ne ptr %12, null
  br i1 %13, label %17, label %14

14:                                               ; preds = %2
  %15 = load ptr, ptr %3, align 8, !tbaa !28
  %16 = call i32 @avtext_print_string(ptr noundef %15, ptr noundef @.str.466, ptr noundef @.str.277, i32 noundef 1)
  br label %71

17:                                               ; preds = %2
  %18 = load i32, ptr @do_bitexact, align 4, !tbaa !11
  %19 = icmp ne i32 %18, 0
  br i1 %19, label %20, label %24

20:                                               ; preds = %17
  %21 = load i32, ptr %4, align 4, !tbaa !11
  %22 = call i32 @av_pix_fmt_swap_endianness(i32 noundef %21)
  store i32 %22, ptr %6, align 4, !tbaa !11
  %23 = icmp eq i32 %22, -1
  br i1 %23, label %24, label %28

24:                                               ; preds = %20, %17
  %25 = load ptr, ptr %3, align 8, !tbaa !28
  %26 = load ptr, ptr %5, align 8, !tbaa !4
  %27 = call i32 @avtext_print_string(ptr noundef %25, ptr noundef @.str.466, ptr noundef %26, i32 noundef 0)
  br label %70

28:                                               ; preds = %20
  call void @llvm.lifetime.start.p0(i64 8, ptr %7) #14
  %29 = load i32, ptr %6, align 4, !tbaa !11
  %30 = call ptr @av_get_pix_fmt_name(i32 noundef %29)
  store ptr %30, ptr %7, align 8, !tbaa !4
  call void @llvm.lifetime.start.p0(i64 128, ptr %8) #14
  call void @llvm.lifetime.start.p0(i64 8, ptr %9) #14
  store i64 0, ptr %9, align 8, !tbaa !114
  br label %31

31:                                               ; preds = %55, %28
  %32 = load ptr, ptr %5, align 8, !tbaa !4
  %33 = load i64, ptr %9, align 8, !tbaa !114
  %34 = getelementptr inbounds nuw i8, ptr %32, i64 %33
  %35 = load i8, ptr %34, align 1, !tbaa !53
  %36 = sext i8 %35 to i32
  %37 = icmp ne i32 %36, 0
  br i1 %37, label %38, label %53

38:                                               ; preds = %31
  %39 = load ptr, ptr %5, align 8, !tbaa !4
  %40 = load i64, ptr %9, align 8, !tbaa !114
  %41 = getelementptr inbounds nuw i8, ptr %39, i64 %40
  %42 = load i8, ptr %41, align 1, !tbaa !53
  %43 = sext i8 %42 to i32
  %44 = load ptr, ptr %7, align 8, !tbaa !4
  %45 = load i64, ptr %9, align 8, !tbaa !114
  %46 = getelementptr inbounds nuw i8, ptr %44, i64 %45
  %47 = load i8, ptr %46, align 1, !tbaa !53
  %48 = sext i8 %47 to i32
  %49 = icmp eq i32 %43, %48
  br i1 %49, label %50, label %53

50:                                               ; preds = %38
  %51 = load i64, ptr %9, align 8, !tbaa !114
  %52 = icmp ult i64 %51, 127
  br label %53

53:                                               ; preds = %50, %38, %31
  %54 = phi i1 [ false, %38 ], [ false, %31 ], [ %52, %50 ]
  br i1 %54, label %55, label %64

55:                                               ; preds = %53
  %56 = load ptr, ptr %5, align 8, !tbaa !4
  %57 = load i64, ptr %9, align 8, !tbaa !114
  %58 = getelementptr inbounds nuw i8, ptr %56, i64 %57
  %59 = load i8, ptr %58, align 1, !tbaa !53
  %60 = load i64, ptr %9, align 8, !tbaa !114
  %61 = getelementptr inbounds nuw [128 x i8], ptr %8, i64 0, i64 %60
  store i8 %59, ptr %61, align 1, !tbaa !53
  %62 = load i64, ptr %9, align 8, !tbaa !114
  %63 = add i64 %62, 1
  store i64 %63, ptr %9, align 8, !tbaa !114
  br label %31, !llvm.loop !380

64:                                               ; preds = %53
  %65 = load i64, ptr %9, align 8, !tbaa !114
  %66 = getelementptr inbounds nuw [128 x i8], ptr %8, i64 0, i64 %65
  store i8 0, ptr %66, align 1, !tbaa !53
  %67 = load ptr, ptr %3, align 8, !tbaa !28
  %68 = getelementptr inbounds [128 x i8], ptr %8, i64 0, i64 0
  %69 = call i32 @avtext_print_string(ptr noundef %67, ptr noundef @.str.466, ptr noundef %68, i32 noundef 0)
  call void @llvm.lifetime.end.p0(i64 8, ptr %9) #14
  call void @llvm.lifetime.end.p0(i64 128, ptr %8) #14
  call void @llvm.lifetime.end.p0(i64 8, ptr %7) #14
  br label %70

70:                                               ; preds = %64, %24
  br label %71

71:                                               ; preds = %70, %14
  call void @llvm.lifetime.end.p0(i64 4, ptr %6) #14
  call void @llvm.lifetime.end.p0(i64 8, ptr %5) #14
  ret void
}