; Function Attrs: nounwind uwtable
define internal fastcc void @print_pixel_format(ptr noundef %0, i32 noundef %1) unnamed_addr #0 {
  %3 = alloca [128 x i8], align 16
  %4 = tail call ptr @av_get_pix_fmt_name(i32 noundef %1) #20
  %.not = icmp eq ptr %4, null
  br i1 %.not, label %5, label %7

5:                                                ; preds = %2
  %6 = tail call i32 @avtext_print_string(ptr noundef %0, ptr noundef nonnull @.str.466, ptr noundef nonnull @.str.277, i32 noundef 1) #20
  br label %29

7:                                                ; preds = %2
  %8 = load i32, ptr @do_bitexact, align 4, !tbaa !11
  %.not23 = icmp eq i32 %8, 0
  br i1 %.not23, label %12, label %9

9:                                                ; preds = %7
  %10 = tail call i32 @av_pix_fmt_swap_endianness(i32 noundef %1) #20
  %11 = icmp eq i32 %10, -1
  br i1 %11, label %12, label %14

12:                                               ; preds = %9, %7
  %13 = tail call i32 @avtext_print_string(ptr noundef %0, ptr noundef nonnull @.str.466, ptr noundef nonnull %4, i32 noundef 0) #20
  br label %29

14:                                               ; preds = %9
  %15 = tail call ptr @av_get_pix_fmt_name(i32 noundef %10) #20
  call void @llvm.lifetime.start.p0(i64 128, ptr nonnull %3) #20
  %16 = load i8, ptr %4, align 1, !tbaa !59
  %.not2425 = icmp eq i8 %16, 0
  br i1 %.not2425, label %.critedge, label %.lr.ph

.lr.ph:                                           ; preds = %14, %22
  %17 = phi i8 [ %26, %22 ], [ %16, %14 ]
  %.026 = phi i64 [ %24, %22 ], [ 0, %14 ]
  %18 = getelementptr inbounds nuw i8, ptr %15, i64 %.026
  %19 = load i8, ptr %18, align 1, !tbaa !59
  %20 = icmp eq i8 %17, %19
  %21 = icmp samesign ult i64 %.026, 127
  %or.cond = select i1 %20, i1 %21, i1 false
  br i1 %or.cond, label %22, label %.critedge

22:                                               ; preds = %.lr.ph
  %23 = getelementptr inbounds nuw [128 x i8], ptr %3, i64 0, i64 %.026
  store i8 %17, ptr %23, align 1, !tbaa !59
  %24 = add nuw nsw i64 %.026, 1
  %25 = getelementptr inbounds nuw i8, ptr %4, i64 %24
  %26 = load i8, ptr %25, align 1, !tbaa !59
  %.not24 = icmp eq i8 %26, 0
  br i1 %.not24, label %.critedge, label %.lr.ph, !llvm.loop !536

.critedge:                                        ; preds = %22, %.lr.ph, %14
  %.0.lcssa = phi i64 [ 0, %14 ], [ %.026, %.lr.ph ], [ %24, %22 ]
  %27 = getelementptr inbounds nuw [128 x i8], ptr %3, i64 0, i64 %.0.lcssa
  store i8 0, ptr %27, align 1, !tbaa !59
  %28 = call i32 @avtext_print_string(ptr noundef %0, ptr noundef nonnull @.str.466, ptr noundef nonnull %3, i32 noundef 0) #20
  call void @llvm.lifetime.end.p0(i64 128, ptr nonnull %3) #20
  br label %29

29:                                               ; preds = %12, %.critedge, %5
  ret void
}